target datalayout = "e-m:e-p270:32:32-p271:32:32-p272:64:64-i64:64-i128:128-f80:128-n8:16:32:64-S128"
target triple = "x86_64-pc-linux-gnu"

%"class.std::__cxx11::basic_string" = type { %"struct.std::__cxx11::basic_string<char>::_Alloc_hider", i64, %union.anon.0 }
%"struct.std::__cxx11::basic_string<char>::_Alloc_hider" = type { ptr }
%union.anon.0 = type { i64, [8 x i8] }
%"class.LIEF::ELF::CorePrStatus" = type { %"class.LIEF::ELF::Note", i32, i32 }
%"class.LIEF::ELF::Note" = type { %"class.LIEF::Object", %"class.std::__cxx11::basic_string", i32, i32, %"class.std::vector.44" }
%"class.LIEF::Object" = type { ptr }
%"class.std::vector.44" = type { %"struct.std::_Vector_base.45" }
%"struct.std::_Vector_base.45" = type { %"struct.std::_Vector_base<unsigned char, std::allocator<unsigned char>>::_Vector_impl" }
%"struct.std::_Vector_base<unsigned char, std::allocator<unsigned char>>::_Vector_impl" = type { %"struct.std::_Vector_base<unsigned char, std::allocator<unsigned char>>::_Vector_impl_data" }
%"struct.std::_Vector_base<unsigned char, std::allocator<unsigned char>>::_Vector_impl_data" = type { ptr, ptr, ptr }
%"class.tl::unexpected" = type { i32 }
%"class.tl::expected.50" = type { %"struct.tl::detail::expected_move_assign_base.base.63", [3 x i8] }
%"struct.tl::detail::expected_move_assign_base.base.63" = type { %"struct.tl::detail::expected_copy_assign_base.base.62" }
%"struct.tl::detail::expected_copy_assign_base.base.62" = type { %"struct.tl::detail::expected_move_base.base.61" }
%"struct.tl::detail::expected_move_base.base.61" = type { %"struct.tl::detail::expected_copy_base.base.60" }
%"struct.tl::detail::expected_copy_base.base.60" = type { %"struct.tl::detail::expected_operations_base.base.59" }
%"struct.tl::detail::expected_operations_base.base.59" = type { %"struct.tl::detail::expected_storage_base.base.58" }
%"struct.tl::detail::expected_storage_base.base.58" = type <{ %union.anon.57, i8 }>
%union.anon.57 = type { %"class.tl::unexpected" }

; Function Attrs: mustprogress uwtable
define i64 @_ZN4LIEF3ELF12CorePrStatus3setENS1_9Registers3ARMEm(ptr noundef nonnull align 8 dereferenceable(80) %0, i32 noundef %1, i64 noundef %2) #3 align 2 {
  %4 = alloca %"class.tl::expected.50", align 4
  %5 = alloca ptr, align 8
  %6 = alloca i32, align 4
  %7 = alloca i64, align 8
  store ptr %0, ptr %5, align 8
  store i32 %1, ptr %6, align 4
  store i64 %2, ptr %7, align 8
  %8 = load ptr, ptr %5, align 8
  %9 = load i32, ptr %6, align 4
  %10 = load i64, ptr %7, align 8
  %11 = getelementptr inbounds %"class.LIEF::ELF::Note", ptr %8, i32 0, i32 4
  %12 = getelementptr inbounds %"class.LIEF::ELF::CorePrStatus", ptr %8, i32 0, i32 2
  %13 = load i32, ptr %12, align 4
  %14 = getelementptr inbounds %"class.LIEF::ELF::CorePrStatus", ptr %8, i32 0, i32 1
  %15 = load i32, ptr %14, align 8
  %16 = call i64 @_ZN4LIEF3ELF12set_reg_implINS0_12CorePrStatus9Registers3ARMEEEN2tl8expectedINS_4ok_tE11lief_errorsEET_mRSt6vectorIhSaIhEENS0_6Header5CLASSENS0_4ARCHE(i32 noundef %9, i64 noundef %10, ptr noundef nonnull align 8 dereferenceable(24) %11, i32 noundef %13, i32 noundef %15)
  store i64 %16, ptr %4, align 4
  %17 = load i64, ptr %4, align 4
  ret i64 %17
}